; ModuleID = '19/2125.c'
source_filename = "19/2125.c"
target datalayout = "e-m:e-p270:32:32-p271:32:32-p272:64:64-i64:64-f80:128-n8:16:32:64-S128"
target triple = "x86_64-pc-linux-gnu"

@.str = private unnamed_addr constant [3 x i8] c"%c\00", align 1
@.str.1 = private unnamed_addr constant [3 x i8] c"%s\00", align 1

; Function Attrs: noinline nounwind uwtable
define dso_local i32 @main() #0 {
  %1 = alloca i32, align 4
  %2 = alloca i8*, align 8
  %3 = alloca i8*, align 8
  %4 = alloca i32, align 4
  %5 = alloca i32, align 4
  %6 = alloca i32, align 4
  %7 = alloca i32, align 4
  %8 = alloca i32, align 4
  %9 = alloca [200 x i8], align 16
  %10 = alloca [200 x i8], align 16
  %11 = alloca [200 x i8], align 16
  store i32 0, i32* %1, align 4
  %12 = getelementptr inbounds [200 x i8], [200 x i8]* %9, i64 0, i64 0
  %13 = call i32 (i8*, ...) bitcast (i32 (...)* @gets to i32 (i8*, ...)*)(i8* %12)
  %14 = getelementptr inbounds [200 x i8], [200 x i8]* %10, i64 0, i64 0
  %15 = call i32 (i8*, ...) bitcast (i32 (...)* @gets to i32 (i8*, ...)*)(i8* %14)
  %16 = getelementptr inbounds [200 x i8], [200 x i8]* %11, i64 0, i64 0
  %17 = call i32 (i8*, ...) bitcast (i32 (...)* @gets to i32 (i8*, ...)*)(i8* %16)
  %18 = getelementptr inbounds [200 x i8], [200 x i8]* %9, i64 0, i64 0
  store i8* %18, i8** %2, align 8
  %19 = getelementptr inbounds [200 x i8], [200 x i8]* %10, i64 0, i64 0
  store i8* %19, i8** %3, align 8
  %20 = getelementptr inbounds [200 x i8], [200 x i8]* %10, i64 0, i64 0
  %21 = call i64 @strlen(i8* %20) #3
  %22 = trunc i64 %21 to i32
  store i32 %22, i32* %6, align 4
  store i32 0, i32* %4, align 4
  br label %23

23:                                               ; preds = %161, %0
  %24 = load i8*, i8** %2, align 8
  %25 = load i32, i32* %4, align 4
  %26 = sext i32 %25 to i64
  %27 = getelementptr inbounds i8, i8* %24, i64 %26
  %28 = load i8, i8* %27, align 1
  %29 = sext i8 %28 to i32
  %30 = icmp ne i32 %29, 0
  br i1 %30, label %31, label %162

31:                                               ; preds = %23
  %32 = load i8*, i8** %2, align 8
  %33 = load i32, i32* %4, align 4
  %34 = sext i32 %33 to i64
  %35 = getelementptr inbounds i8, i8* %32, i64 %34
  %36 = load i8, i8* %35, align 1
  %37 = sext i8 %36 to i32
  %38 = load i8*, i8** %3, align 8
  %39 = load i8, i8* %38, align 1
  %40 = sext i8 %39 to i32
  %41 = icmp ne i32 %37, %40
  br i1 %41, label %42, label %52

42:                                               ; preds = %31
  %43 = load i8*, i8** %2, align 8
  %44 = load i32, i32* %4, align 4
  %45 = sext i32 %44 to i64
  %46 = getelementptr inbounds i8, i8* %43, i64 %45
  %47 = load i8, i8* %46, align 1
  %48 = sext i8 %47 to i32
  %49 = call i32 (i8*, ...) @printf(i8* getelementptr inbounds ([3 x i8], [3 x i8]* @.str, i64 0, i64 0), i32 %48)
  %50 = load i32, i32* %4, align 4
  %51 = add nsw i32 %50, 1
  store i32 %51, i32* %4, align 4
  br label %161

52:                                               ; preds = %31
  store i32 1, i32* %5, align 4
  store i32 1, i32* %8, align 4
  br label %53

53:                                               ; preds = %97, %52
  %54 = load i32, i32* %5, align 4
  %55 = load i32, i32* %6, align 4
  %56 = icmp slt i32 %54, %55
  br i1 %56, label %57, label %100

57:                                               ; preds = %53
  %58 = load i8*, i8** %2, align 8
  %59 = load i32, i32* %4, align 4
  %60 = sext i32 %59 to i64
  %61 = getelementptr inbounds i8, i8* %58, i64 %60
  %62 = load i32, i32* %5, align 4
  %63 = sext i32 %62 to i64
  %64 = getelementptr inbounds i8, i8* %61, i64 %63
  %65 = load i8, i8* %64, align 1
  %66 = sext i8 %65 to i32
  %67 = load i8*, i8** %3, align 8
  %68 = load i32, i32* %5, align 4
  %69 = sext i32 %68 to i64
  %70 = getelementptr inbounds i8, i8* %67, i64 %69
  %71 = load i8, i8* %70, align 1
  %72 = sext i8 %71 to i32
  %73 = icmp ne i32 %66, %72
  br i1 %73, label %74, label %94

74:                                               ; preds = %57
  store i32 0, i32* %7, align 4
  br label %75

75:                                               ; preds = %90, %74
  %76 = load i32, i32* %7, align 4
  %77 = load i32, i32* %5, align 4
  %78 = icmp slt i32 %76, %77
  br i1 %78, label %79, label %93

79:                                               ; preds = %75
  %80 = load i8*, i8** %2, align 8
  %81 = load i32, i32* %4, align 4
  %82 = sext i32 %81 to i64
  %83 = getelementptr inbounds i8, i8* %80, i64 %82
  %84 = load i32, i32* %7, align 4
  %85 = sext i32 %84 to i64
  %86 = getelementptr inbounds i8, i8* %83, i64 %85
  %87 = load i8, i8* %86, align 1
  %88 = sext i8 %87 to i32
  %89 = call i32 (i8*, ...) @printf(i8* getelementptr inbounds ([3 x i8], [3 x i8]* @.str, i64 0, i64 0), i32 %88)
  br label %90

90:                                               ; preds = %79
  %91 = load i32, i32* %7, align 4
  %92 = add nsw i32 %91, 1
  store i32 %92, i32* %7, align 4
  br label %75

93:                                               ; preds = %75
  br label %100

94:                                               ; preds = %57
  %95 = load i32, i32* %8, align 4
  %96 = add nsw i32 %95, 1
  store i32 %96, i32* %8, align 4
  br label %97

97:                                               ; preds = %94
  %98 = load i32, i32* %5, align 4
  %99 = add nsw i32 %98, 1
  store i32 %99, i32* %5, align 4
  br label %53

100:                                              ; preds = %93, %53
  %101 = load i32, i32* %8, align 4
  %102 = load i32, i32* %6, align 4
  %103 = icmp eq i32 %101, %102
  br i1 %103, label %104, label %156

104:                                              ; preds = %100
  %105 = load i8*, i8** %2, align 8
  %106 = load i32, i32* %4, align 4
  %107 = sext i32 %106 to i64
  %108 = getelementptr inbounds i8, i8* %105, i64 %107
  %109 = load i32, i32* %6, align 4
  %110 = sext i32 %109 to i64
  %111 = getelementptr inbounds i8, i8* %108, i64 %110
  %112 = load i8, i8* %111, align 1
  %113 = sext i8 %112 to i32
  %114 = icmp eq i32 %113, 32
  br i1 %114, label %126, label %115

115:                                              ; preds = %104
  %116 = load i8*, i8** %2, align 8
  %117 = load i32, i32* %4, align 4
  %118 = sext i32 %117 to i64
  %119 = getelementptr inbounds i8, i8* %116, i64 %118
  %120 = load i32, i32* %6, align 4
  %121 = sext i32 %120 to i64
  %122 = getelementptr inbounds i8, i8* %119, i64 %121
  %123 = load i8, i8* %122, align 1
  %124 = sext i8 %123 to i32
  %125 = icmp eq i32 %124, 0
  br i1 %125, label %126, label %135

126:                                              ; preds = %115, %104
  %127 = load i8*, i8** %2, align 8
  %128 = load i32, i32* %4, align 4
  %129 = sext i32 %128 to i64
  %130 = getelementptr inbounds i8, i8* %127, i64 %129
  %131 = getelementptr inbounds i8, i8* %130, i64 -1
  %132 = load i8, i8* %131, align 1
  %133 = sext i8 %132 to i32
  %134 = icmp eq i32 %133, 32
  br i1 %134, label %146, label %135

135:                                              ; preds = %126, %115
  %136 = load i32, i32* %4, align 4
  %137 = icmp eq i32 %136, 0
  br i1 %137, label %138, label %149

138:                                              ; preds = %135
  %139 = load i8*, i8** %2, align 8
  %140 = load i32, i32* %6, align 4
  %141 = sext i32 %140 to i64
  %142 = getelementptr inbounds i8, i8* %139, i64 %141
  %143 = load i8, i8* %142, align 1
  %144 = sext i8 %143 to i32
  %145 = icmp eq i32 %144, 32
  br i1 %145, label %146, label %149

146:                                              ; preds = %138, %126
  %147 = getelementptr inbounds [200 x i8], [200 x i8]* %11, i64 0, i64 0
  %148 = call i32 (i8*, ...) @printf(i8* getelementptr inbounds ([3 x i8], [3 x i8]* @.str.1, i64 0, i64 0), i8* %147)
  br label %152

149:                                              ; preds = %138, %135
  %150 = getelementptr inbounds [200 x i8], [200 x i8]* %10, i64 0, i64 0
  %151 = call i32 (i8*, ...) @printf(i8* getelementptr inbounds ([3 x i8], [3 x i8]* @.str.1, i64 0, i64 0), i8* %150)
  br label %152

152:                                              ; preds = %149, %146
  %153 = load i32, i32* %4, align 4
  %154 = load i32, i32* %6, align 4
  %155 = add nsw i32 %153, %154
  store i32 %155, i32* %4, align 4
  br label %160

156:                                              ; preds = %100
  %157 = load i32, i32* %4, align 4
  %158 = load i32, i32* %5, align 4
  %159 = add nsw i32 %157, %158
  store i32 %159, i32* %4, align 4
  br label %160

160:                                              ; preds = %156, %152
  br label %161

161:                                              ; preds = %160, %42
  br label %23

162:                                              ; preds = %23
  ret i32 0
}

declare dso_local i32 @gets(...) #1

; Function Attrs: nounwind readonly
declare dso_local i64 @strlen(i8*) #2

declare dso_local i32 @printf(i8*, ...) #1


!llvm.module.flags = !{!0}
!llvm.ident = !{!1}

!0 = !{i32 1, !"wchar_size", i32 4}
!1 = !{!"clang version 10.0.0-4ubuntu1 "}
